target datalayout = "e-m:e-p270:32:32-p271:32:32-p272:64:64-i64:64-i128:128-f80:128-n8:16:32:64-S128"
target triple = "x86_64-pc-linux-gnu"

%"struct.(anonymous namespace)::ILcidPosixMap" = type { i32, ptr }
%"struct.(anonymous namespace)::ILcidPosixElement" = type { i32, ptr }

; Function Attrs: mustprogress nounwind uwtable
define internal noundef ptr @_ZN12_GLOBAL__N_110getPosixIDEPKNS_13ILcidPosixMapEj(ptr noundef %0, i32 noundef %1) #0 {
  %3 = alloca ptr, align 8
  %4 = alloca ptr, align 8
  %5 = alloca i32, align 4
  %6 = alloca i32, align 4
  %7 = alloca i32, align 4
  store ptr %0, ptr %4, align 8, !tbaa !33
  store i32 %1, ptr %5, align 4, !tbaa !14
  call void @llvm.lifetime.start.p0(i64 4, ptr %6) #10
  store i32 0, ptr %6, align 4, !tbaa !14
  br label %8

8:                                                ; preds = %35, %2
  %9 = load i32, ptr %6, align 4, !tbaa !14
  %10 = load ptr, ptr %4, align 8, !tbaa !33
  %11 = getelementptr inbounds nuw %"struct.(anonymous namespace)::ILcidPosixMap", ptr %10, i32 0, i32 0
  %12 = load i32, ptr %11, align 8, !tbaa !35
  %13 = icmp ult i32 %9, %12
  br i1 %13, label %14, label %38

14:                                               ; preds = %8
  %15 = load ptr, ptr %4, align 8, !tbaa !33
  %16 = getelementptr inbounds nuw %"struct.(anonymous namespace)::ILcidPosixMap", ptr %15, i32 0, i32 1
  %17 = load ptr, ptr %16, align 8, !tbaa !26
  %18 = load i32, ptr %6, align 4, !tbaa !14
  %19 = zext i32 %18 to i64
  %20 = getelementptr inbounds nuw %"struct.(anonymous namespace)::ILcidPosixElement", ptr %17, i64 %19
  %21 = getelementptr inbounds nuw %"struct.(anonymous namespace)::ILcidPosixElement", ptr %20, i32 0, i32 0
  %22 = load i32, ptr %21, align 8, !tbaa !29
  %23 = load i32, ptr %5, align 4, !tbaa !14
  %24 = icmp eq i32 %22, %23
  br i1 %24, label %25, label %34

25:                                               ; preds = %14
  %26 = load ptr, ptr %4, align 8, !tbaa !33
  %27 = getelementptr inbounds nuw %"struct.(anonymous namespace)::ILcidPosixMap", ptr %26, i32 0, i32 1
  %28 = load ptr, ptr %27, align 8, !tbaa !26
  %29 = load i32, ptr %6, align 4, !tbaa !14
  %30 = zext i32 %29 to i64
  %31 = getelementptr inbounds nuw %"struct.(anonymous namespace)::ILcidPosixElement", ptr %28, i64 %30
  %32 = getelementptr inbounds nuw %"struct.(anonymous namespace)::ILcidPosixElement", ptr %31, i32 0, i32 1
  %33 = load ptr, ptr %32, align 8, !tbaa !36
  store ptr %33, ptr %3, align 8
  store i32 1, ptr %7, align 4
  br label %45

34:                                               ; preds = %14
  br label %35

35:                                               ; preds = %34
  %36 = load i32, ptr %6, align 4, !tbaa !14
  %37 = add i32 %36, 1
  store i32 %37, ptr %6, align 4, !tbaa !14
  br label %8, !llvm.loop !37

38:                                               ; preds = %8
  %39 = load ptr, ptr %4, align 8, !tbaa !33
  %40 = getelementptr inbounds nuw %"struct.(anonymous namespace)::ILcidPosixMap", ptr %39, i32 0, i32 1
  %41 = load ptr, ptr %40, align 8, !tbaa !26
  %42 = getelementptr inbounds %"struct.(anonymous namespace)::ILcidPosixElement", ptr %41, i64 0
  %43 = getelementptr inbounds nuw %"struct.(anonymous namespace)::ILcidPosixElement", ptr %42, i32 0, i32 1
  %44 = load ptr, ptr %43, align 8, !tbaa !36
  store ptr %44, ptr %3, align 8
  store i32 1, ptr %7, align 4
  br label %45

45:                                               ; preds = %38, %25
  call void @llvm.lifetime.end.p0(i64 4, ptr %6) #10
  %46 = load ptr, ptr %3, align 8
  ret ptr %46
}

; Function Attrs: mustprogress uwtable
define i32 @uprv_convertToPosix_77(i32 noundef %0, ptr noundef %1, i32 noundef %2, ptr noundef %3) #1 {
  %5 = alloca i32, align 4
  %6 = alloca i32, align 4
  %7 = alloca ptr, align 8
  %8 = alloca i32, align 4
  %9 = alloca ptr, align 8
  %10 = alloca i16, align 2
  %11 = alloca i32, align 4
  %12 = alloca i8, align 1
  %13 = alloca ptr, align 8
  %14 = alloca ptr, align 8
  %15 = alloca i32, align 4
  %16 = alloca i32, align 4
  %17 = alloca i32, align 4
  store i32 %0, ptr %6, align 4, !tbaa !14
  store ptr %1, ptr %7, align 8, !tbaa !17
  store i32 %2, ptr %8, align 4, !tbaa !14
  store ptr %3, ptr %9, align 8, !tbaa !22
  call void @llvm.lifetime.start.p0(i64 2, ptr %10) #10
  call void @llvm.lifetime.start.p0(i64 4, ptr %11) #10
  call void @llvm.lifetime.start.p0(i64 1, ptr %12) #10
  store i8 1, ptr %12, align 1, !tbaa !23
  call void @llvm.lifetime.start.p0(i64 8, ptr %13) #10
  store ptr null, ptr %13, align 8, !tbaa !17
  %18 = load i8, ptr %12, align 1, !tbaa !23
  %19 = icmp ne i8 %18, 0
  br i1 %19, label %20, label %63

20:                                               ; preds = %4
  call void @llvm.lifetime.start.p0(i64 8, ptr %14) #10
  store ptr null, ptr %14, align 8, !tbaa !17
  %21 = load i32, ptr %6, align 4, !tbaa !14
  %22 = and i32 1023, %21
  %23 = trunc i32 %22 to i16
  store i16 %23, ptr %10, align 2, !tbaa !24
  store i32 0, ptr %11, align 4, !tbaa !14
  br label %24

24:                                               ; preds = %45, %20
  %25 = load i32, ptr %11, align 4, !tbaa !14
  %26 = icmp ult i32 %25, 141
  br i1 %26, label %27, label %48

27:                                               ; preds = %24
  %28 = load i16, ptr %10, align 2, !tbaa !24
  %29 = zext i16 %28 to i32
  %30 = load i32, ptr %11, align 4, !tbaa !14
  %31 = zext i32 %30 to i64
  %32 = getelementptr inbounds nuw [141 x %"struct.(anonymous namespace)::ILcidPosixMap"], ptr @_ZN12_GLOBAL__N_111gPosixIDmapE, i64 0, i64 %31
  %33 = getelementptr inbounds nuw %"struct.(anonymous namespace)::ILcidPosixMap", ptr %32, i32 0, i32 1
  %34 = load ptr, ptr %33, align 8, !tbaa !26
  %35 = getelementptr inbounds nuw %"struct.(anonymous namespace)::ILcidPosixElement", ptr %34, i32 0, i32 0
  %36 = load i32, ptr %35, align 8, !tbaa !29
  %37 = icmp eq i32 %29, %36
  br i1 %37, label %38, label %44

38:                                               ; preds = %27
  %39 = load i32, ptr %11, align 4, !tbaa !14
  %40 = zext i32 %39 to i64
  %41 = getelementptr inbounds nuw [141 x %"struct.(anonymous namespace)::ILcidPosixMap"], ptr @_ZN12_GLOBAL__N_111gPosixIDmapE, i64 0, i64 %40
  %42 = load i32, ptr %6, align 4, !tbaa !14
  %43 = call noundef ptr @_ZN12_GLOBAL__N_110getPosixIDEPKNS_13ILcidPosixMapEj(ptr noundef %41, i32 noundef %42)
  store ptr %43, ptr %14, align 8, !tbaa !17
  br label %48

44:                                               ; preds = %27
  br label %45

45:                                               ; preds = %44
  %46 = load i32, ptr %11, align 4, !tbaa !14
  %47 = add i32 %46, 1
  store i32 %47, ptr %11, align 4, !tbaa !14
  br label %24, !llvm.loop !31

48:                                               ; preds = %38, %24
  %49 = load ptr, ptr %14, align 8, !tbaa !17
  %50 = icmp ne ptr %49, null
  br i1 %50, label %51, label %62

51:                                               ; preds = %48
  %52 = load ptr, ptr %13, align 8, !tbaa !17
  %53 = icmp eq ptr %52, null
  br i1 %53, label %60, label %54

54:                                               ; preds = %51
  %55 = load ptr, ptr %14, align 8, !tbaa !17
  %56 = call i64 @strlen(ptr noundef %55) #13
  %57 = load ptr, ptr %13, align 8, !tbaa !17
  %58 = call i64 @strlen(ptr noundef %57) #13
  %59 = icmp ugt i64 %56, %58
  br i1 %59, label %60, label %62

60:                                               ; preds = %54, %51
  %61 = load ptr, ptr %14, align 8, !tbaa !17
  store ptr %61, ptr %13, align 8, !tbaa !17
  br label %62

62:                                               ; preds = %60, %54, %48
  call void @llvm.lifetime.end.p0(i64 8, ptr %14) #10
  br label %63

63:                                               ; preds = %62, %4
  %64 = load ptr, ptr %13, align 8, !tbaa !17
  %65 = icmp ne ptr %64, null
  br i1 %65, label %66, label %111

66:                                               ; preds = %63
  call void @llvm.lifetime.start.p0(i64 4, ptr %15) #10
  %67 = load ptr, ptr %13, align 8, !tbaa !17
  %68 = call i64 @strlen(ptr noundef %67) #13
  %69 = trunc i64 %68 to i32
  store i32 %69, ptr %15, align 4, !tbaa !14
  call void @llvm.lifetime.start.p0(i64 4, ptr %16) #10
  %70 = load i32, ptr %15, align 4, !tbaa !14
  %71 = load i32, ptr %8, align 4, !tbaa !14
  %72 = icmp sle i32 %70, %71
  br i1 %72, label %73, label %75

73:                                               ; preds = %66
  %74 = load i32, ptr %15, align 4, !tbaa !14
  br label %77

75:                                               ; preds = %66
  %76 = load i32, ptr %8, align 4, !tbaa !14
  br label %77

77:                                               ; preds = %75, %73
  %78 = phi i32 [ %74, %73 ], [ %76, %75 ]
  store i32 %78, ptr %16, align 4, !tbaa !14
  br label %79

79:                                               ; preds = %77
  %80 = load ptr, ptr %7, align 8, !tbaa !17
  %81 = load ptr, ptr %13, align 8, !tbaa !17
  %82 = load i32, ptr %16, align 4, !tbaa !14
  %83 = sext i32 %82 to i64
  call void @llvm.memcpy.p0.p0.i64(ptr align 1 %80, ptr align 1 %81, i64 %83, i1 false)
  br label %84

84:                                               ; preds = %79
  br label %85

85:                                               ; preds = %84
  %86 = load i32, ptr %15, align 4, !tbaa !14
  %87 = load i32, ptr %8, align 4, !tbaa !14
  %88 = icmp slt i32 %86, %87
  br i1 %88, label %89, label %100

89:                                               ; preds = %85
  %90 = load ptr, ptr %7, align 8, !tbaa !17
  %91 = load i32, ptr %15, align 4, !tbaa !14
  %92 = sext i32 %91 to i64
  %93 = getelementptr inbounds i8, ptr %90, i64 %92
  store i8 0, ptr %93, align 1, !tbaa !23
  %94 = load ptr, ptr %9, align 8, !tbaa !22
  %95 = load i32, ptr %94, align 4, !tbaa !15
  %96 = icmp eq i32 %95, -124
  br i1 %96, label %97, label %99

97:                                               ; preds = %89
  %98 = load ptr, ptr %9, align 8, !tbaa !22
  store i32 0, ptr %98, align 4, !tbaa !15
  br label %99

99:                                               ; preds = %97, %89
  br label %109

100:                                              ; preds = %85
  %101 = load i32, ptr %15, align 4, !tbaa !14
  %102 = load i32, ptr %8, align 4, !tbaa !14
  %103 = icmp eq i32 %101, %102
  br i1 %103, label %104, label %106

104:                                              ; preds = %100
  %105 = load ptr, ptr %9, align 8, !tbaa !22
  store i32 -124, ptr %105, align 4, !tbaa !15
  br label %108

106:                                              ; preds = %100
  %107 = load ptr, ptr %9, align 8, !tbaa !22
  store i32 15, ptr %107, align 4, !tbaa !15
  br label %108

108:                                              ; preds = %106, %104
  br label %109

109:                                              ; preds = %108, %99
  %110 = load i32, ptr %15, align 4, !tbaa !14
  store i32 %110, ptr %5, align 4
  store i32 1, ptr %17, align 4
  call void @llvm.lifetime.end.p0(i64 4, ptr %16) #10
  call void @llvm.lifetime.end.p0(i64 4, ptr %15) #10
  br label %113

111:                                              ; preds = %63
  %112 = load ptr, ptr %9, align 8, !tbaa !22
  store i32 1, ptr %112, align 4, !tbaa !15
  store i32 0, ptr %5, align 4
  store i32 1, ptr %17, align 4
  br label %113

113:                                              ; preds = %111, %109
  call void @llvm.lifetime.end.p0(i64 8, ptr %13) #10
  call void @llvm.lifetime.end.p0(i64 1, ptr %12) #10
  call void @llvm.lifetime.end.p0(i64 4, ptr %11) #10
  call void @llvm.lifetime.end.p0(i64 2, ptr %10) #10
  %114 = load i32, ptr %5, align 4
  ret i32 %114
}