; Function Attrs: mustprogress nofree nounwind memory(readwrite, inaccessiblemem: none) uwtable
define i32 @uprv_convertToPosix_77(i32 noundef %0, ptr noundef writeonly captures(none) %1, i32 noundef %2, ptr noundef captures(none) %3) local_unnamed_addr #9 {
  %5 = and i32 %0, 1023
  br label %7

6:                                                ; preds = %7
  %indvars.iv.next = add nuw nsw i64 %indvars.iv, 1
  %exitcond.not = icmp eq i64 %indvars.iv.next, 141
  br i1 %exitcond.not, label %.sink.split, label %7, !llvm.loop !15

7:                                                ; preds = %4, %6
  %indvars.iv = phi i64 [ 0, %4 ], [ %indvars.iv.next, %6 ]
  %8 = getelementptr inbounds nuw [141 x %"struct.(anonymous namespace)::ILcidPosixMap"], ptr @_ZN12_GLOBAL__N_111gPosixIDmapE, i64 0, i64 %indvars.iv
  %9 = getelementptr inbounds nuw i8, ptr %8, i64 8
  %10 = load ptr, ptr %9, align 8, !tbaa !17
  %11 = load i32, ptr %10, align 8, !tbaa !20
  %12 = icmp eq i32 %5, %11
  br i1 %12, label %13, label %6

13:                                               ; preds = %7
  %14 = load i32, ptr %8, align 8, !tbaa !22
  %.not.i = icmp eq i32 %14, 0
  br i1 %.not.i, label %.loopexit, label %.lr.ph.i

.lr.ph.i:                                         ; preds = %13
  %wide.trip.count.i = zext i32 %14 to i64
  br label %16

15:                                               ; preds = %16
  %indvars.iv.next.i = add nuw nsw i64 %indvars.iv.i, 1
  %exitcond.not.i = icmp eq i64 %indvars.iv.next.i, %wide.trip.count.i
  br i1 %exitcond.not.i, label %.loopexit, label %16, !llvm.loop !23

16:                                               ; preds = %15, %.lr.ph.i
  %indvars.iv.i = phi i64 [ 0, %.lr.ph.i ], [ %indvars.iv.next.i, %15 ]
  %17 = getelementptr inbounds nuw %"struct.(anonymous namespace)::ILcidPosixElement", ptr %10, i64 %indvars.iv.i
  %18 = load i32, ptr %17, align 8, !tbaa !20
  %19 = icmp eq i32 %18, %0
  br i1 %19, label %.loopexit, label %15

.loopexit:                                        ; preds = %16, %15, %13
  %.pn.i = phi ptr [ %10, %13 ], [ %10, %15 ], [ %17, %16 ]
  %.09.in.i = getelementptr inbounds nuw i8, ptr %.pn.i, i64 8
  %.09.i = load ptr, ptr %.09.in.i, align 8, !tbaa !24
  %.not = icmp eq ptr %.09.i, null
  br i1 %.not, label %.sink.split, label %20

20:                                               ; preds = %.loopexit
  %21 = tail call i64 @strlen(ptr noundef nonnull dereferenceable(1) %.09.i) #17
  %22 = trunc i64 %21 to i32
  %23 = tail call i32 @llvm.smin.i32(i32 %2, i32 %22)
  %24 = sext i32 %23 to i64
  tail call void @llvm.memcpy.p0.p0.i64(ptr align 1 %1, ptr nonnull align 1 %.09.i, i64 %24, i1 false)
  %25 = icmp sgt i32 %2, %22
  br i1 %25, label %26, label %31

26:                                               ; preds = %20
  %sext = shl i64 %21, 32
  %27 = ashr exact i64 %sext, 32
  %28 = getelementptr inbounds i8, ptr %1, i64 %27
  store i8 0, ptr %28, align 1, !tbaa !25
  %29 = load i32, ptr %3, align 4, !tbaa !13
  %30 = icmp eq i32 %29, -124
  br i1 %30, label %.sink.split, label %33

31:                                               ; preds = %20
  %32 = icmp eq i32 %2, %22
  %. = select i1 %32, i32 -124, i32 15
  br label %.sink.split

.sink.split:                                      ; preds = %6, %.loopexit, %31, %26
  %.sink = phi i32 [ 0, %26 ], [ %., %31 ], [ 1, %.loopexit ], [ 1, %6 ]
  %.0.ph = phi i32 [ %22, %26 ], [ %22, %31 ], [ 0, %.loopexit ], [ 0, %6 ]
  store i32 %.sink, ptr %3, align 4, !tbaa !13
  br label %33

33:                                               ; preds = %.sink.split, %26
  %.0 = phi i32 [ %22, %26 ], [ %.0.ph, %.sink.split ]
  ret i32 %.0
}